; Function Attrs: mustprogress uwtable
define void @_ZN7logging18LogErrorNotReachedEPKci(ptr noundef %0, i32 noundef %1) local_unnamed_addr #0 personality ptr @__gxx_personality_v0 {
  %3 = alloca %"class.logging::LogMessage", align 8
  call void @llvm.lifetime.start.p0(i64 408, ptr nonnull %3) #24
  call void @_ZN7logging10LogMessageC1EPKcii(ptr noundef nonnull align 8 dereferenceable(404) %3, ptr noundef %0, i32 noundef %1, i32 noundef 2)
  %4 = getelementptr inbounds nuw i8, ptr %3, i64 8
  %5 = invoke noundef nonnull align 8 dereferenceable(8) ptr @_ZSt16__ostream_insertIcSt11char_traitsIcEERSt13basic_ostreamIT_T0_ES6_PKS3_l(ptr noundef nonnull align 8 dereferenceable(8) %4, ptr noundef nonnull @.str.15, i64 noundef 17)
          to label %_ZStlsISt11char_traitsIcEERSt13basic_ostreamIcT_ES5_PKc.exit unwind label %6

_ZStlsISt11char_traitsIcEERSt13basic_ostreamIcT_ES5_PKc.exit: ; preds = %2
  call void @_ZN7logging10LogMessageD1Ev(ptr noundef nonnull align 8 dereferenceable(404) %3) #24
  call void @llvm.lifetime.end.p0(i64 408, ptr nonnull %3) #24
  ret void

6:                                                ; preds = %2
  %7 = landingpad { ptr, i32 }
          cleanup
  call void @_ZN7logging10LogMessageD1Ev(ptr noundef nonnull align 8 dereferenceable(404) %3) #24
  call void @llvm.lifetime.end.p0(i64 408, ptr nonnull %3) #24
  resume { ptr, i32 } %7
}